; Function Attrs: nounwind uwtable
define ptr @l_Lean_Meta_SimpTheoremsArray_isErased___boxed(ptr noundef %0, ptr noundef %1) local_unnamed_addr #1 {
  %3 = getelementptr i8, ptr %0, i64 8
  %.val.i = load i64, ptr %3, align 8, !tbaa !12
  %.mask.i = and i64 %.val.i, 9223372036854775807
  %.not.i8 = icmp eq i64 %.mask.i, 0
  br i1 %.not.i8, label %l_Lean_Meta_SimpTheoremsArray_isErased.exit, label %lean_dec.exit.i

lean_dec.exit.i:                                  ; preds = %2
  %4 = tail call zeroext i8 @l_Array_anyMUnsafe_any___at_Lean_Meta_SimpTheoremsArray_isErased___spec__1(ptr noundef %1, ptr noundef nonnull readonly %0, i64 noundef 0, i64 noundef %.mask.i)
  %5 = shl nuw nsw i8 %4, 1
  %6 = or disjoint i8 %5, 1
  %7 = zext nneg i8 %6 to i64
  br label %l_Lean_Meta_SimpTheoremsArray_isErased.exit

l_Lean_Meta_SimpTheoremsArray_isErased.exit:      ; preds = %2, %lean_dec.exit.i
  %.0.i = phi i64 [ %7, %lean_dec.exit.i ], [ 1, %2 ]
  %8 = ptrtoint ptr %1 to i64
  %9 = and i64 %8, 1
  %.not = icmp eq i64 %9, 0
  br i1 %.not, label %10, label %lean_dec.exit5

10:                                               ; preds = %l_Lean_Meta_SimpTheoremsArray_isErased.exit
  %11 = load i32, ptr %1, align 4, !tbaa !4
  %12 = icmp sgt i32 %11, 1
  br i1 %12, label %13, label %15, !prof !11

13:                                               ; preds = %10
  %14 = add nsw i32 %11, -1
  store i32 %14, ptr %1, align 4, !tbaa !4
  br label %lean_dec.exit5

15:                                               ; preds = %10
  %.not.i = icmp eq i32 %11, 0
  br i1 %.not.i, label %lean_dec.exit5, label %16

16:                                               ; preds = %15
  tail call void @lean_dec_ref_cold(ptr noundef nonnull %1) #6
  br label %lean_dec.exit5

lean_dec.exit5:                                   ; preds = %16, %15, %13, %l_Lean_Meta_SimpTheoremsArray_isErased.exit
  %17 = ptrtoint ptr %0 to i64
  %18 = and i64 %17, 1
  %.not9 = icmp eq i64 %18, 0
  br i1 %.not9, label %19, label %lean_dec.exit

19:                                               ; preds = %lean_dec.exit5
  %20 = load i32, ptr %0, align 4, !tbaa !4
  %21 = icmp sgt i32 %20, 1
  br i1 %21, label %22, label %24, !prof !11

22:                                               ; preds = %19
  %23 = add nsw i32 %20, -1
  store i32 %23, ptr %0, align 4, !tbaa !4
  br label %lean_dec.exit

24:                                               ; preds = %19
  %.not.i6 = icmp eq i32 %20, 0
  br i1 %.not.i6, label %lean_dec.exit, label %25

25:                                               ; preds = %24
  tail call void @lean_dec_ref_cold(ptr noundef nonnull %0) #6
  br label %lean_dec.exit

lean_dec.exit:                                    ; preds = %25, %24, %22, %lean_dec.exit5
  %26 = inttoptr i64 %.0.i to ptr
  ret ptr %26
}